target datalayout = "e-m:e-p270:32:32-p271:32:32-p272:64:64-i64:64-i128:128-f80:128-n8:16:32:64-S128"
target triple = "x86_64-pc-linux-gnu"

%struct.gres_state = type { i32, i32, ptr, ptr, i32 }
%struct.gres_job_state = type { i32, ptr, i16, i16, i64, i64, i64, i64, i64, i16, i16, i64, i32, ptr, ptr, ptr, ptr, i32, i64, i32, ptr, ptr, ptr, ptr, ptr, ptr }

; Function Attrs: nounwind uwtable
define dso_local i32 @gres_select_util_job_min_cpus(i32 noundef %0, i32 noundef %1, i32 noundef %2, ptr noundef %3) #0 {
  %5 = alloca i32, align 4
  %6 = alloca i32, align 4
  %7 = alloca i32, align 4
  %8 = alloca i32, align 4
  %9 = alloca ptr, align 8
  %10 = alloca ptr, align 8
  %11 = alloca ptr, align 8
  %12 = alloca ptr, align 8
  %13 = alloca i32, align 4
  %14 = alloca i32, align 4
  %15 = alloca i16, align 2
  %16 = alloca i32, align 4
  %17 = alloca i64, align 8
  store i32 %0, ptr %6, align 4
  store i32 %1, ptr %7, align 4
  store i32 %2, ptr %8, align 4
  store ptr %3, ptr %9, align 8
  call void @llvm.lifetime.start.p0(i64 8, ptr %10) #3
  call void @llvm.lifetime.start.p0(i64 8, ptr %11) #3
  call void @llvm.lifetime.start.p0(i64 8, ptr %12) #3
  call void @llvm.lifetime.start.p0(i64 4, ptr %13) #3
  call void @llvm.lifetime.start.p0(i64 4, ptr %14) #3
  store i32 0, ptr %14, align 4
  call void @llvm.lifetime.start.p0(i64 2, ptr %15) #3
  %18 = load ptr, ptr %9, align 8
  %19 = icmp ne ptr %18, null
  br i1 %19, label %20, label %24

20:                                               ; preds = %4
  %21 = load ptr, ptr %9, align 8
  %22 = call i32 @slurm_list_count(ptr noundef %21)
  %23 = icmp eq i32 %22, 0
  br i1 %23, label %24, label %25

24:                                               ; preds = %20, %4
  store i32 0, ptr %5, align 4
  store i32 1, ptr %16, align 4
  br label %126

25:                                               ; preds = %20
  %26 = load ptr, ptr %9, align 8
  %27 = call ptr @slurm_list_iterator_create(ptr noundef %26)
  store ptr %27, ptr %10, align 8
  br label %28

28:                                               ; preds = %122, %120, %25
  %29 = load ptr, ptr %10, align 8
  %30 = call ptr @slurm_list_next(ptr noundef %29)
  store ptr %30, ptr %11, align 8
  %31 = icmp ne ptr %30, null
  br i1 %31, label %32, label %123

32:                                               ; preds = %28
  call void @llvm.lifetime.start.p0(i64 8, ptr %17) #3
  store i64 0, ptr %17, align 8
  %33 = load ptr, ptr %11, align 8
  %34 = getelementptr inbounds nuw %struct.gres_state, ptr %33, i32 0, i32 2
  %35 = load ptr, ptr %34, align 8
  store ptr %35, ptr %12, align 8
  %36 = load ptr, ptr %12, align 8
  %37 = getelementptr inbounds nuw %struct.gres_job_state, ptr %36, i32 0, i32 3
  %38 = load i16, ptr %37, align 2
  %39 = icmp ne i16 %38, 0
  br i1 %39, label %40, label %44

40:                                               ; preds = %32
  %41 = load ptr, ptr %12, align 8
  %42 = getelementptr inbounds nuw %struct.gres_job_state, ptr %41, i32 0, i32 3
  %43 = load i16, ptr %42, align 2
  store i16 %43, ptr %15, align 2
  br label %48

44:                                               ; preds = %32
  %45 = load ptr, ptr %12, align 8
  %46 = getelementptr inbounds nuw %struct.gres_job_state, ptr %45, i32 0, i32 10
  %47 = load i16, ptr %46, align 2
  store i16 %47, ptr %15, align 2
  br label %48

48:                                               ; preds = %44, %40
  %49 = load i16, ptr %15, align 2
  %50 = zext i16 %49 to i32
  %51 = icmp eq i32 %50, 0
  br i1 %51, label %52, label %53

52:                                               ; preds = %48
  store i32 2, ptr %16, align 4
  br label %120, !llvm.loop !17

53:                                               ; preds = %48
  %54 = load ptr, ptr %12, align 8
  %55 = getelementptr inbounds nuw %struct.gres_job_state, ptr %54, i32 0, i32 4
  %56 = load i64, ptr %55, align 8
  %57 = icmp ne i64 %56, 0
  br i1 %57, label %58, label %62

58:                                               ; preds = %53
  %59 = load ptr, ptr %12, align 8
  %60 = getelementptr inbounds nuw %struct.gres_job_state, ptr %59, i32 0, i32 4
  %61 = load i64, ptr %60, align 8
  store i64 %61, ptr %17, align 8
  br label %105

62:                                               ; preds = %53
  %63 = load ptr, ptr %12, align 8
  %64 = getelementptr inbounds nuw %struct.gres_job_state, ptr %63, i32 0, i32 5
  %65 = load i64, ptr %64, align 8
  %66 = icmp ne i64 %65, 0
  br i1 %66, label %67, label %74

67:                                               ; preds = %62
  %68 = load ptr, ptr %12, align 8
  %69 = getelementptr inbounds nuw %struct.gres_job_state, ptr %68, i32 0, i32 5
  %70 = load i64, ptr %69, align 8
  %71 = load i32, ptr %6, align 4
  %72 = zext i32 %71 to i64
  %73 = mul i64 %70, %72
  store i64 %73, ptr %17, align 8
  br label %104

74:                                               ; preds = %62
  %75 = load ptr, ptr %12, align 8
  %76 = getelementptr inbounds nuw %struct.gres_job_state, ptr %75, i32 0, i32 6
  %77 = load i64, ptr %76, align 8
  %78 = icmp ne i64 %77, 0
  br i1 %78, label %79, label %89

79:                                               ; preds = %74
  %80 = load ptr, ptr %12, align 8
  %81 = getelementptr inbounds nuw %struct.gres_job_state, ptr %80, i32 0, i32 6
  %82 = load i64, ptr %81, align 8
  %83 = load i32, ptr %6, align 4
  %84 = zext i32 %83 to i64
  %85 = mul i64 %82, %84
  %86 = load i32, ptr %7, align 4
  %87 = zext i32 %86 to i64
  %88 = mul i64 %85, %87
  store i64 %88, ptr %17, align 8
  br label %103

89:                                               ; preds = %74
  %90 = load ptr, ptr %12, align 8
  %91 = getelementptr inbounds nuw %struct.gres_job_state, ptr %90, i32 0, i32 7
  %92 = load i64, ptr %91, align 8
  %93 = icmp ne i64 %92, 0
  br i1 %93, label %94, label %101

94:                                               ; preds = %89
  %95 = load ptr, ptr %12, align 8
  %96 = getelementptr inbounds nuw %struct.gres_job_state, ptr %95, i32 0, i32 7
  %97 = load i64, ptr %96, align 8
  %98 = load i32, ptr %8, align 4
  %99 = zext i32 %98 to i64
  %100 = mul i64 %97, %99
  store i64 %100, ptr %17, align 8
  br label %102

101:                                              ; preds = %89
  store i32 2, ptr %16, align 4
  br label %120, !llvm.loop !17

102:                                              ; preds = %94
  br label %103

103:                                              ; preds = %102, %79
  br label %104

104:                                              ; preds = %103, %67
  br label %105

105:                                              ; preds = %104, %58
  %106 = load i16, ptr %15, align 2
  %107 = zext i16 %106 to i64
  %108 = load i64, ptr %17, align 8
  %109 = mul i64 %107, %108
  %110 = trunc i64 %109 to i32
  store i32 %110, ptr %13, align 4
  %111 = load i32, ptr %14, align 4
  %112 = load i32, ptr %13, align 4
  %113 = icmp sgt i32 %111, %112
  br i1 %113, label %114, label %116

114:                                              ; preds = %105
  %115 = load i32, ptr %14, align 4
  br label %118

116:                                              ; preds = %105
  %117 = load i32, ptr %13, align 4
  br label %118

118:                                              ; preds = %116, %114
  %119 = phi i32 [ %115, %114 ], [ %117, %116 ]
  store i32 %119, ptr %14, align 4
  store i32 0, ptr %16, align 4
  br label %120

120:                                              ; preds = %118, %101, %52
  call void @llvm.lifetime.end.p0(i64 8, ptr %17) #3
  %121 = load i32, ptr %16, align 4
  switch i32 %121, label %128 [
    i32 0, label %122
    i32 2, label %28
  ]

122:                                              ; preds = %120
  br label %28, !llvm.loop !17

123:                                              ; preds = %28
  %124 = load ptr, ptr %10, align 8
  call void @slurm_list_iterator_destroy(ptr noundef %124)
  %125 = load i32, ptr %14, align 4
  store i32 %125, ptr %5, align 4
  store i32 1, ptr %16, align 4
  br label %126

126:                                              ; preds = %123, %24
  call void @llvm.lifetime.end.p0(i64 2, ptr %15) #3
  call void @llvm.lifetime.end.p0(i64 4, ptr %14) #3
  call void @llvm.lifetime.end.p0(i64 4, ptr %13) #3
  call void @llvm.lifetime.end.p0(i64 8, ptr %12) #3
  call void @llvm.lifetime.end.p0(i64 8, ptr %11) #3
  call void @llvm.lifetime.end.p0(i64 8, ptr %10) #3
  %127 = load i32, ptr %5, align 4
  ret i32 %127

128:                                              ; preds = %120
  unreachable
}