; Function Attrs: nounwind uwtable
define dso_local range(i32 0, -2147483648) i32 @gres_select_util_job_min_cpus(i32 noundef %0, i32 noundef %1, i32 noundef %2, ptr noundef %3) local_unnamed_addr #0 {
  %.not = icmp eq ptr %3, null
  br i1 %.not, label %49, label %5

5:                                                ; preds = %4
  %6 = tail call i32 @slurm_list_count(ptr noundef nonnull %3) #4
  %7 = icmp eq i32 %6, 0
  br i1 %7, label %49, label %8

8:                                                ; preds = %5
  %9 = tail call ptr @slurm_list_iterator_create(ptr noundef nonnull %3) #4
  %10 = tail call ptr @slurm_list_next(ptr noundef %9) #4
  %.not3947 = icmp eq ptr %10, null
  br i1 %.not3947, label %._crit_edge, label %.lr.ph

.lr.ph:                                           ; preds = %8
  %11 = zext i32 %0 to i64
  %12 = zext i32 %1 to i64
  %13 = mul nuw i64 %12, %11
  %14 = zext i32 %2 to i64
  br label %15

15:                                               ; preds = %.lr.ph, %47
  %16 = phi ptr [ %10, %.lr.ph ], [ %48, %47 ]
  %.03048 = phi i32 [ 0, %.lr.ph ], [ %.1, %47 ]
  %17 = getelementptr inbounds nuw i8, ptr %16, i64 8
  %18 = load ptr, ptr %17, align 8
  %19 = getelementptr inbounds nuw i8, ptr %18, i64 18
  %20 = load i16, ptr %19, align 2
  %.not40 = icmp eq i16 %20, 0
  br i1 %.not40, label %21, label %.thread

21:                                               ; preds = %15
  %22 = getelementptr inbounds nuw i8, ptr %18, i64 66
  %23 = load i16, ptr %22, align 2
  %24 = icmp eq i16 %23, 0
  br i1 %24, label %47, label %.thread, !llvm.loop !15

.thread:                                          ; preds = %15, %21
  %.02946 = phi i16 [ %23, %21 ], [ %20, %15 ]
  %25 = getelementptr inbounds nuw i8, ptr %18, i64 24
  %26 = load i64, ptr %25, align 8
  %.not41 = icmp eq i64 %26, 0
  br i1 %.not41, label %27, label %42

27:                                               ; preds = %.thread
  %28 = getelementptr inbounds nuw i8, ptr %18, i64 32
  %29 = load i64, ptr %28, align 8
  %.not42 = icmp eq i64 %29, 0
  br i1 %.not42, label %32, label %30

30:                                               ; preds = %27
  %31 = mul i64 %29, %11
  br label %42

32:                                               ; preds = %27
  %33 = getelementptr inbounds nuw i8, ptr %18, i64 40
  %34 = load i64, ptr %33, align 8
  %.not43 = icmp eq i64 %34, 0
  br i1 %.not43, label %37, label %35

35:                                               ; preds = %32
  %36 = mul i64 %13, %34
  br label %42

37:                                               ; preds = %32
  %38 = getelementptr inbounds nuw i8, ptr %18, i64 48
  %39 = load i64, ptr %38, align 8
  %.not44 = icmp eq i64 %39, 0
  br i1 %.not44, label %47, label %40, !llvm.loop !15

40:                                               ; preds = %37
  %41 = mul i64 %39, %14
  br label %42

42:                                               ; preds = %.thread, %30, %40, %35
  %.0 = phi i64 [ %31, %30 ], [ %36, %35 ], [ %41, %40 ], [ %26, %.thread ]
  %43 = zext i16 %.02946 to i64
  %44 = mul i64 %.0, %43
  %45 = trunc i64 %44 to i32
  %46 = tail call i32 @llvm.smax.i32(i32 %.03048, i32 %45)
  br label %47

47:                                               ; preds = %37, %21, %42
  %.1 = phi i32 [ %46, %42 ], [ %.03048, %21 ], [ %.03048, %37 ]
  %48 = tail call ptr @slurm_list_next(ptr noundef %9) #4
  %.not39 = icmp eq ptr %48, null
  br i1 %.not39, label %._crit_edge, label %15

._crit_edge:                                      ; preds = %47, %8
  %.030.lcssa = phi i32 [ 0, %8 ], [ %.1, %47 ]
  tail call void @slurm_list_iterator_destroy(ptr noundef %9) #4
  br label %49

49:                                               ; preds = %4, %5, %._crit_edge
  %.031 = phi i32 [ %.030.lcssa, %._crit_edge ], [ 0, %5 ], [ 0, %4 ]
  ret i32 %.031
}